target datalayout = "e-m:e-p270:32:32-p271:32:32-p272:64:64-i64:64-i128:128-f80:128-n8:16:32:64-S128"
target triple = "x86_64-pc-linux-gnu"

%struct.ident_t = type { i32, i32, i32, i32, ptr }
%"struct.gmx::nbnxn_atomdata_t::Params" = type { i32, %"class.std::vector", i32, %"class.std::vector", %"class.std::vector.0", %"class.std::vector.3", %"class.std::vector", %"class.std::vector", i32, %"class.std::unique_ptr" }
%"class.std::vector.0" = type { %"struct.std::_Vector_base.1" }
%"struct.std::_Vector_base.1" = type { %"struct.std::_Vector_base<float, gmx::Allocator<float, gmx::AlignedAllocationPolicy>>::_Vector_impl" }
%"struct.std::_Vector_base<float, gmx::Allocator<float, gmx::AlignedAllocationPolicy>>::_Vector_impl" = type { %"struct.std::_Vector_base<float, gmx::Allocator<float, gmx::AlignedAllocationPolicy>>::_Vector_impl_data" }
%"struct.std::_Vector_base<float, gmx::Allocator<float, gmx::AlignedAllocationPolicy>>::_Vector_impl_data" = type { ptr, ptr, ptr }
%"class.std::vector.3" = type { %"struct.std::_Vector_base.4" }
%"struct.std::_Vector_base.4" = type { %"struct.std::_Vector_base<int, gmx::Allocator<int, gmx::HostAllocationPolicy>>::_Vector_impl" }
%"struct.std::_Vector_base<int, gmx::Allocator<int, gmx::HostAllocationPolicy>>::_Vector_impl" = type { %"class.gmx::Allocator.base.6", %"struct.std::_Vector_base<int, gmx::Allocator<int, gmx::HostAllocationPolicy>>::_Vector_impl_data" }
%"class.gmx::Allocator.base.6" = type { %"class.gmx::HostAllocationPolicy.base" }
%"class.gmx::HostAllocationPolicy.base" = type <{ i32, i8 }>
%"struct.std::_Vector_base<int, gmx::Allocator<int, gmx::HostAllocationPolicy>>::_Vector_impl_data" = type { ptr, ptr, ptr }
%"class.std::unique_ptr" = type { %"struct.std::__uniq_ptr_data" }
%"struct.std::__uniq_ptr_data" = type { %"class.std::__uniq_ptr_impl" }
%"class.std::__uniq_ptr_impl" = type { %"class.std::tuple" }
%"class.std::tuple" = type { %"struct.std::_Tuple_impl" }
%"struct.std::_Tuple_impl" = type { %"struct.std::_Head_base.8" }
%"struct.std::_Head_base.8" = type { ptr }
%"class.std::vector" = type { %"struct.std::_Vector_base" }
%"struct.std::_Vector_base" = type { %"struct.std::_Vector_base<float, gmx::Allocator<float, gmx::HostAllocationPolicy>>::_Vector_impl" }
%"struct.std::_Vector_base<float, gmx::Allocator<float, gmx::HostAllocationPolicy>>::_Vector_impl" = type { %"class.gmx::Allocator.base", %"struct.std::_Vector_base<float, gmx::Allocator<float, gmx::HostAllocationPolicy>>::_Vector_impl_data" }
%"class.gmx::Allocator.base" = type { %"class.gmx::HostAllocationPolicy.base" }
%"struct.std::_Vector_base<float, gmx::Allocator<float, gmx::HostAllocationPolicy>>::_Vector_impl_data" = type { ptr, ptr, ptr }
%"class.gmx::BasicVector" = type { [3 x float] }
%"class.std::vector.88" = type { %"struct.std::_Vector_base.89" }
%"struct.std::_Vector_base.89" = type { %"struct.std::_Vector_base<int, std::allocator<int>>::_Vector_impl" }
%"struct.std::_Vector_base<int, std::allocator<int>>::_Vector_impl" = type { %"struct.std::_Vector_base<int, std::allocator<int>>::_Vector_impl_data" }
%"struct.std::_Vector_base<int, std::allocator<int>>::_Vector_impl_data" = type { ptr, ptr, ptr }
%"struct.gmx::Grid::Geometry" = type { i8, i32, i32, i32, i32, i32 }
%"class.gmx::Grid" = type <{ %"struct.gmx::Grid::Geometry", i32, %"struct.gmx::GridDimensions", i32, i32, i32, i32, i32, [4 x i8], %"class.std::vector.3", %"class.std::vector.3", %"class.std::vector.88", %"class.std::vector.96", %"class.std::vector.101", %"class.std::vector.101", %"class.gmx::ArrayRef.104", %"class.std::vector.0", ptr, %"class.std::vector.88", %"class.std::vector.107", i32, [4 x i8] }>
%"struct.gmx::GridDimensions" = type { %"class.gmx::BasicVector", %"class.gmx::BasicVector", %"class.gmx::BasicVector", float, float, [2 x float], [2 x float], [2 x i32] }
%"class.std::vector.96" = type { %"struct.std::_Vector_base.97" }
%"struct.std::_Vector_base.97" = type { %"struct.std::_Vector_base<gmx::BoundingBox1D, std::allocator<gmx::BoundingBox1D>>::_Vector_impl" }
%"struct.std::_Vector_base<gmx::BoundingBox1D, std::allocator<gmx::BoundingBox1D>>::_Vector_impl" = type { %"struct.std::_Vector_base<gmx::BoundingBox1D, std::allocator<gmx::BoundingBox1D>>::_Vector_impl_data" }
%"struct.std::_Vector_base<gmx::BoundingBox1D, std::allocator<gmx::BoundingBox1D>>::_Vector_impl_data" = type { ptr, ptr, ptr }
%"class.std::vector.101" = type { %"struct.std::_Vector_base.102" }
%"struct.std::_Vector_base.102" = type { %"struct.std::_Vector_base<gmx::BoundingBox, gmx::Allocator<gmx::BoundingBox, gmx::AlignedAllocationPolicy>>::_Vector_impl" }
%"struct.std::_Vector_base<gmx::BoundingBox, gmx::Allocator<gmx::BoundingBox, gmx::AlignedAllocationPolicy>>::_Vector_impl" = type { %"struct.std::_Vector_base<gmx::BoundingBox, gmx::Allocator<gmx::BoundingBox, gmx::AlignedAllocationPolicy>>::_Vector_impl_data" }
%"struct.std::_Vector_base<gmx::BoundingBox, gmx::Allocator<gmx::BoundingBox, gmx::AlignedAllocationPolicy>>::_Vector_impl_data" = type { ptr, ptr, ptr }
%"class.gmx::ArrayRef.104" = type { %"struct.gmx::ArrayRefIter.105", %"struct.gmx::ArrayRefIter.105" }
%"struct.gmx::ArrayRefIter.105" = type { ptr }
%"class.std::vector.107" = type { %"struct.std::_Vector_base.108" }
%"struct.std::_Vector_base.108" = type { %"struct.std::_Vector_base<unsigned int, std::allocator<unsigned int>>::_Vector_impl" }
%"struct.std::_Vector_base<unsigned int, std::allocator<unsigned int>>::_Vector_impl" = type { %"struct.std::_Vector_base<unsigned int, std::allocator<unsigned int>>::_Vector_impl_data" }
%"struct.std::_Vector_base<unsigned int, std::allocator<unsigned int>>::_Vector_impl_data" = type { ptr, ptr, ptr }

@1 = private unnamed_addr constant %struct.ident_t { i32 0, i32 514, i32 0, i32 22, ptr @0 }, align 8

; Function Attrs: mustprogress nounwind uwtable
define linkonce_odr noundef nonnull align 4 dereferenceable(4) ptr @_ZNKSt6vectorIjSaIjEEixEm(ptr noundef nonnull align 8 dereferenceable(24) %0, i64 noundef %1) #1 comdat align 2 {
  %3 = alloca ptr, align 8
  %4 = alloca i64, align 8
  store ptr %0, ptr %3, align 8, !tbaa !574
  store i64 %1, ptr %4, align 8, !tbaa !76
  %5 = load ptr, ptr %3, align 8
  %6 = getelementptr inbounds nuw %"struct.std::_Vector_base.108", ptr %5, i32 0, i32 0
  %7 = getelementptr inbounds nuw %"struct.std::_Vector_base<unsigned int, std::allocator<unsigned int>>::_Vector_impl_data", ptr %6, i32 0, i32 0
  %8 = load ptr, ptr %7, align 8, !tbaa !576
  %9 = load i64, ptr %4, align 8, !tbaa !76
  %10 = getelementptr inbounds nuw i32, ptr %8, i64 %9
  ret ptr %10
}

; Function Attrs: noinline noreturn nounwind uwtable
define linkonce_odr hidden void @__clang_call_terminate(ptr noundef %0) #3 comdat {
  %2 = call ptr @__cxa_begin_catch(ptr %0) #18
  call void @_ZSt9terminatev() #27
  unreachable
}

; Function Attrs: mustprogress nounwind uwtable
define linkonce_odr noundef nonnull align 4 dereferenceable(4) ptr @_ZNSt6vectorIiN3gmx9AllocatorIiNS0_20HostAllocationPolicyEEEEixEm(ptr noundef nonnull align 8 dereferenceable(32) %0, i64 noundef %1) #1 comdat align 2 {
  %3 = alloca ptr, align 8
  %4 = alloca i64, align 8
  store ptr %0, ptr %3, align 8, !tbaa !319
  store i64 %1, ptr %4, align 8, !tbaa !76
  %5 = load ptr, ptr %3, align 8
  %6 = getelementptr inbounds nuw %"struct.std::_Vector_base.4", ptr %5, i32 0, i32 0
  %7 = getelementptr inbounds i8, ptr %6, i64 8
  %8 = getelementptr inbounds nuw %"struct.std::_Vector_base<int, gmx::Allocator<int, gmx::HostAllocationPolicy>>::_Vector_impl_data", ptr %7, i32 0, i32 0
  %9 = load ptr, ptr %8, align 8, !tbaa !323
  %10 = load i64, ptr %4, align 8, !tbaa !76
  %11 = getelementptr inbounds nuw i32, ptr %9, i64 %10
  ret ptr %11
}

; Function Attrs: mustprogress nounwind uwtable
define linkonce_odr noundef zeroext i1 @_ZNK3gmx4Grid15atomIsPerturbedEii(ptr noundef nonnull align 8 dereferenceable(380) %0, i32 noundef %1, i32 noundef %2) #1 comdat align 2 {
  %4 = alloca ptr, align 8
  %5 = alloca i32, align 4
  %6 = alloca i32, align 4
  store ptr %0, ptr %4, align 8, !tbaa !486
  store i32 %1, ptr %5, align 4, !tbaa !15
  store i32 %2, ptr %6, align 4, !tbaa !15
  %7 = load ptr, ptr %4, align 8
  %8 = getelementptr inbounds nuw %"class.gmx::Grid", ptr %7, i32 0, i32 19
  %9 = load i32, ptr %5, align 4, !tbaa !15
  %10 = sext i32 %9 to i64
  %11 = call noundef nonnull align 4 dereferenceable(4) ptr @_ZNKSt6vectorIjSaIjEEixEm(ptr noundef nonnull align 8 dereferenceable(24) %8, i64 noundef %10) #18
  %12 = load i32, ptr %11, align 4, !tbaa !15
  %13 = load i32, ptr %6, align 4, !tbaa !15
  %14 = shl i32 1, %13
  %15 = and i32 %12, %14
  %16 = icmp ne i32 %15, 0
  ret i1 %16
}

; Function Attrs: mustprogress nounwind uwtable
define linkonce_odr noundef nonnull align 4 dereferenceable(24) ptr @_ZNK3gmx4Grid8geometryEv(ptr noundef nonnull align 8 dereferenceable(380) %0) #1 comdat align 2 {
  %2 = alloca ptr, align 8
  store ptr %0, ptr %2, align 8, !tbaa !486
  %3 = load ptr, ptr %2, align 8
  %4 = getelementptr inbounds nuw %"class.gmx::Grid", ptr %3, i32 0, i32 0
  ret ptr %4
}

; Function Attrs: mustprogress nounwind uwtable
define linkonce_odr noundef zeroext i1 @_ZNK3gmx4Grid18clusterIsPerturbedEi(ptr noundef nonnull align 8 dereferenceable(380) %0, i32 noundef %1) #1 comdat align 2 {
  %3 = alloca ptr, align 8
  %4 = alloca i32, align 4
  store ptr %0, ptr %3, align 8, !tbaa !486
  store i32 %1, ptr %4, align 4, !tbaa !15
  %5 = load ptr, ptr %3, align 8
  %6 = getelementptr inbounds nuw %"class.gmx::Grid", ptr %5, i32 0, i32 19
  %7 = load i32, ptr %4, align 4, !tbaa !15
  %8 = sext i32 %7 to i64
  %9 = call noundef nonnull align 4 dereferenceable(4) ptr @_ZNKSt6vectorIjSaIjEEixEm(ptr noundef nonnull align 8 dereferenceable(24) %6, i64 noundef %8) #18
  %10 = load i32, ptr %9, align 4, !tbaa !15
  %11 = icmp ne i32 %10, 0
  ret i1 %11
}

; Function Attrs: mustprogress nounwind uwtable
define linkonce_odr noundef i32 @_ZNK3gmx4Grid8numCellsEv(ptr noundef nonnull align 8 dereferenceable(380) %0) #1 comdat align 2 {
  %2 = alloca ptr, align 8
  store ptr %0, ptr %2, align 8, !tbaa !486
  %3 = load ptr, ptr %2, align 8
  %4 = getelementptr inbounds nuw %"class.gmx::Grid", ptr %3, i32 0, i32 3
  %5 = load i32, ptr %4, align 8, !tbaa !553
  ret i32 %5
}

; Function Attrs: alwaysinline norecurse nounwind uwtable
define internal void @_ZN3gmxL23nbnxn_atomdata_mask_fepEPNS_16nbnxn_atomdata_tERKNS_7GridSetE.omp_outlined(ptr noalias noundef %0, ptr noalias noundef %1, ptr noundef nonnull align 4 dereferenceable(4) %2, ptr noundef nonnull align 8 dereferenceable(380) %3, ptr noundef nonnull align 4 dereferenceable(4) %4, ptr noundef nonnull align 8 dereferenceable(216) %5, ptr noundef nonnull align 8 dereferenceable(8) %6, ptr noundef nonnull align 4 dereferenceable(4) %7) #17 personality ptr @__gxx_personality_v0 {
  %9 = alloca ptr, align 8
  %10 = alloca ptr, align 8
  %11 = alloca ptr, align 8
  %12 = alloca ptr, align 8
  %13 = alloca ptr, align 8
  %14 = alloca ptr, align 8
  %15 = alloca ptr, align 8
  %16 = alloca ptr, align 8
  %17 = alloca ptr, align 8
  %18 = alloca ptr, align 8
  %19 = alloca i32, align 4
  %20 = alloca i32, align 4
  %21 = alloca i32, align 4
  %22 = alloca i32, align 4
  %23 = alloca i32, align 4
  %24 = alloca i32, align 4
  %25 = alloca i32, align 4
  %26 = alloca i32, align 4
  %27 = alloca i32, align 4
  %28 = alloca i32, align 4
  %29 = alloca i32, align 4
  %30 = alloca i32, align 4
  store ptr %0, ptr %9, align 8, !tbaa !131
  store ptr %1, ptr %10, align 8, !tbaa !131
  store ptr %2, ptr %11, align 8, !tbaa !131
  store ptr %3, ptr %12, align 8, !tbaa !486
  store ptr %4, ptr %13, align 8, !tbaa !131
  store ptr %5, ptr %14, align 8, !tbaa !308
  store ptr %6, ptr %15, align 8, !tbaa !141
  store ptr %7, ptr %16, align 8, !tbaa !131
  %31 = load ptr, ptr %11, align 8, !tbaa !131
  %32 = load ptr, ptr %12, align 8, !tbaa !486
  %33 = load ptr, ptr %13, align 8, !tbaa !131
  %34 = load ptr, ptr %14, align 8, !tbaa !308
  %35 = load ptr, ptr %15, align 8, !tbaa !141
  %36 = load ptr, ptr %16, align 8, !tbaa !131
  store ptr %32, ptr %17, align 8
  store ptr %34, ptr %18, align 8
  call void @llvm.lifetime.start.p0(i64 4, ptr %19) #18
  call void @llvm.lifetime.start.p0(i64 4, ptr %20) #18
  %37 = load ptr, ptr %17, align 8, !tbaa !486
  %38 = invoke noundef i32 @_ZNK3gmx4Grid8numCellsEv(ptr noundef nonnull align 8 dereferenceable(380) %37)
          to label %39 unwind label %130

39:                                               ; preds = %8
  %40 = load i32, ptr %31, align 4, !tbaa !15
  %41 = mul nsw i32 %38, %40
  store i32 %41, ptr %20, align 4, !tbaa !15
  call void @llvm.lifetime.start.p0(i64 4, ptr %21) #18
  %42 = load i32, ptr %20, align 4, !tbaa !15
  %43 = sub nsw i32 %42, 0
  %44 = sdiv i32 %43, 1
  %45 = sub nsw i32 %44, 1
  store i32 %45, ptr %21, align 4, !tbaa !15
  call void @llvm.lifetime.start.p0(i64 4, ptr %22) #18
  store i32 0, ptr %22, align 4, !tbaa !15
  call void @llvm.lifetime.end.p0(i64 4, ptr %22) #18
  %46 = load i32, ptr %20, align 4, !tbaa !15
  %47 = icmp slt i32 0, %46
  br i1 %47, label %48, label %129

48:                                               ; preds = %39
  call void @llvm.lifetime.start.p0(i64 4, ptr %23) #18
  store i32 0, ptr %23, align 4, !tbaa !15
  call void @llvm.lifetime.start.p0(i64 4, ptr %24) #18
  %49 = load i32, ptr %21, align 4, !tbaa !15
  store i32 %49, ptr %24, align 4, !tbaa !15
  call void @llvm.lifetime.start.p0(i64 4, ptr %25) #18
  store i32 1, ptr %25, align 4, !tbaa !15
  call void @llvm.lifetime.start.p0(i64 4, ptr %26) #18
  store i32 0, ptr %26, align 4, !tbaa !15
  call void @llvm.lifetime.start.p0(i64 4, ptr %27) #18
  %50 = load ptr, ptr %9, align 8
  %51 = load i32, ptr %50, align 4, !tbaa !15
  call void @__kmpc_for_static_init_4(ptr @1, i32 %51, i32 34, ptr %26, ptr %23, ptr %24, ptr %25, i32 1, i32 1)
  %52 = load i32, ptr %24, align 4, !tbaa !15
  %53 = load i32, ptr %21, align 4, !tbaa !15
  %54 = icmp sgt i32 %52, %53
  br i1 %54, label %55, label %57

55:                                               ; preds = %48
  %56 = load i32, ptr %21, align 4, !tbaa !15
  br label %59

57:                                               ; preds = %48
  %58 = load i32, ptr %24, align 4, !tbaa !15
  br label %59

59:                                               ; preds = %57, %55
  %60 = phi i32 [ %56, %55 ], [ %58, %57 ]
  store i32 %60, ptr %24, align 4, !tbaa !15
  %61 = load i32, ptr %23, align 4, !tbaa !15
  store i32 %61, ptr %19, align 4, !tbaa !15
  br label %62

62:                                               ; preds = %122, %59
  %63 = load i32, ptr %19, align 4, !tbaa !15
  %64 = load i32, ptr %24, align 4, !tbaa !15
  %65 = icmp sle i32 %63, %64
  br i1 %65, label %67, label %66

66:                                               ; preds = %62
  br label %125

67:                                               ; preds = %62
  %68 = load i32, ptr %19, align 4, !tbaa !15
  %69 = mul nsw i32 %68, 1
  %70 = add nsw i32 0, %69
  store i32 %70, ptr %27, align 4, !tbaa !15
  %71 = load ptr, ptr %17, align 8, !tbaa !486
  %72 = load i32, ptr %27, align 4, !tbaa !15
  %73 = invoke noundef zeroext i1 @_ZNK3gmx4Grid18clusterIsPerturbedEi(ptr noundef nonnull align 8 dereferenceable(380) %71, i32 noundef %72)
          to label %74 unwind label %130

74:                                               ; preds = %67
  br i1 %73, label %75, label %120

75:                                               ; preds = %74
  call void @llvm.lifetime.start.p0(i64 4, ptr %28) #18
  %76 = load ptr, ptr %17, align 8, !tbaa !486
  %77 = invoke noundef nonnull align 4 dereferenceable(24) ptr @_ZNK3gmx4Grid8geometryEv(ptr noundef nonnull align 8 dereferenceable(380) %76)
          to label %78 unwind label %130

78:                                               ; preds = %75
  %79 = getelementptr inbounds nuw %"struct.gmx::Grid::Geometry", ptr %77, i32 0, i32 1
  %80 = load i32, ptr %79, align 4, !tbaa !572
  store i32 %80, ptr %28, align 4, !tbaa !15
  call void @llvm.lifetime.start.p0(i64 4, ptr %29) #18
  store i32 0, ptr %29, align 4, !tbaa !15
  br label %81

81:                                               ; preds = %116, %78
  %82 = load i32, ptr %29, align 4, !tbaa !15
  %83 = load i32, ptr %28, align 4, !tbaa !15
  %84 = icmp slt i32 %82, %83
  br i1 %84, label %86, label %85

85:                                               ; preds = %81
  call void @llvm.lifetime.end.p0(i64 4, ptr %29) #18
  br label %119

86:                                               ; preds = %81
  %87 = load ptr, ptr %17, align 8, !tbaa !486
  %88 = load i32, ptr %27, align 4, !tbaa !15
  %89 = load i32, ptr %29, align 4, !tbaa !15
  %90 = invoke noundef zeroext i1 @_ZNK3gmx4Grid15atomIsPerturbedEii(ptr noundef nonnull align 8 dereferenceable(380) %87, i32 noundef %88, i32 noundef %89)
          to label %91 unwind label %130

91:                                               ; preds = %86
  br i1 %90, label %92, label %115

92:                                               ; preds = %91
  call void @llvm.lifetime.start.p0(i64 4, ptr %30) #18
  %93 = load i32, ptr %33, align 4, !tbaa !15
  %94 = load i32, ptr %27, align 4, !tbaa !15
  %95 = load i32, ptr %28, align 4, !tbaa !15
  %96 = mul nsw i32 %94, %95
  %97 = add nsw i32 %93, %96
  %98 = load i32, ptr %29, align 4, !tbaa !15
  %99 = add nsw i32 %97, %98
  store i32 %99, ptr %30, align 4, !tbaa !15
  %100 = load ptr, ptr %18, align 8, !tbaa !308
  %101 = getelementptr inbounds nuw %"struct.gmx::nbnxn_atomdata_t::Params", ptr %100, i32 0, i32 0
  %102 = load i32, ptr %101, align 8, !tbaa !310
  %103 = sub nsw i32 %102, 1
  %104 = load ptr, ptr %18, align 8, !tbaa !308
  %105 = getelementptr inbounds nuw %"struct.gmx::nbnxn_atomdata_t::Params", ptr %104, i32 0, i32 5
  %106 = load i32, ptr %30, align 4, !tbaa !15
  %107 = sext i32 %106 to i64
  %108 = call noundef nonnull align 4 dereferenceable(4) ptr @_ZNSt6vectorIiN3gmx9AllocatorIiNS0_20HostAllocationPolicyEEEEixEm(ptr noundef nonnull align 8 dereferenceable(32) %105, i64 noundef %107) #18
  store i32 %103, ptr %108, align 4, !tbaa !15
  %109 = load ptr, ptr %35, align 8, !tbaa !81
  %110 = load i32, ptr %30, align 4, !tbaa !15
  %111 = load i32, ptr %36, align 4, !tbaa !15
  %112 = mul nsw i32 %110, %111
  %113 = sext i32 %112 to i64
  %114 = getelementptr inbounds float, ptr %109, i64 %113
  store float 0.000000e+00, ptr %114, align 4, !tbaa !89
  call void @llvm.lifetime.end.p0(i64 4, ptr %30) #18
  br label %115

115:                                              ; preds = %92, %91
  br label %116

116:                                              ; preds = %115
  %117 = load i32, ptr %29, align 4, !tbaa !15
  %118 = add nsw i32 %117, 1
  store i32 %118, ptr %29, align 4, !tbaa !15
  br label %81, !llvm.loop !573

119:                                              ; preds = %85
  call void @llvm.lifetime.end.p0(i64 4, ptr %28) #18
  br label %120

120:                                              ; preds = %119, %74
  br label %121

121:                                              ; preds = %120
  br label %122

122:                                              ; preds = %121
  %123 = load i32, ptr %19, align 4, !tbaa !15
  %124 = add nsw i32 %123, 1
  store i32 %124, ptr %19, align 4, !tbaa !15
  br label %62

125:                                              ; preds = %66
  br label %126

126:                                              ; preds = %125
  %127 = load ptr, ptr %9, align 8
  %128 = load i32, ptr %127, align 4, !tbaa !15
  call void @__kmpc_for_static_fini(ptr @1, i32 %128)
  call void @llvm.lifetime.end.p0(i64 4, ptr %27) #18
  call void @llvm.lifetime.end.p0(i64 4, ptr %26) #18
  call void @llvm.lifetime.end.p0(i64 4, ptr %25) #18
  call void @llvm.lifetime.end.p0(i64 4, ptr %24) #18
  call void @llvm.lifetime.end.p0(i64 4, ptr %23) #18
  br label %129

129:                                              ; preds = %126, %39
  call void @llvm.lifetime.end.p0(i64 4, ptr %21) #18
  call void @llvm.lifetime.end.p0(i64 4, ptr %20) #18
  call void @llvm.lifetime.end.p0(i64 4, ptr %19) #18
  ret void

130:                                              ; preds = %86, %75, %67, %8
  %131 = landingpad { ptr, i32 }
          catch ptr null
  %132 = extractvalue { ptr, i32 } %131, 0
  call void @__clang_call_terminate(ptr %132) #27
  unreachable
}