; Function Attrs: alwaysinline norecurse nounwind uwtable
define internal void @_ZN3gmxL23nbnxn_atomdata_mask_fepEPNS_16nbnxn_atomdata_tERKNS_7GridSetE.omp_outlined(ptr noalias noundef readonly captures(none) %0, ptr noalias readnone captures(none) %1, ptr noundef nonnull readonly align 4 captures(none) dereferenceable(4) %2, ptr noundef nonnull readonly align 8 captures(none) dereferenceable(380) %3, ptr noundef nonnull readonly align 4 captures(none) dereferenceable(4) %4, ptr noundef nonnull readonly align 8 captures(none) dereferenceable(216) %5, ptr noundef nonnull readonly align 8 captures(none) dereferenceable(8) %6, ptr noundef nonnull readonly align 4 captures(none) dereferenceable(4) %7) #22 personality ptr @__gxx_personality_v0 {
  %9 = alloca i32, align 4
  %10 = alloca i32, align 4
  %11 = alloca i32, align 4
  %12 = alloca i32, align 4
  %13 = getelementptr inbounds nuw i8, ptr %3, i64 96
  %14 = load i32, ptr %13, align 8, !tbaa !249
  %15 = load i32, ptr %2, align 4, !tbaa !100
  %16 = mul nsw i32 %15, %14
  %17 = icmp sgt i32 %16, 0
  br i1 %17, label %18, label %60

18:                                               ; preds = %8
  %19 = add nsw i32 %16, -1
  call void @llvm.lifetime.start.p0(i64 4, ptr nonnull %9) #23
  store i32 0, ptr %9, align 4, !tbaa !100
  call void @llvm.lifetime.start.p0(i64 4, ptr nonnull %10) #23
  store i32 %19, ptr %10, align 4, !tbaa !100
  call void @llvm.lifetime.start.p0(i64 4, ptr nonnull %11) #23
  store i32 1, ptr %11, align 4, !tbaa !100
  call void @llvm.lifetime.start.p0(i64 4, ptr nonnull %12) #23
  store i32 0, ptr %12, align 4, !tbaa !100
  %20 = load i32, ptr %0, align 4, !tbaa !100
  call void @__kmpc_for_static_init_4(ptr nonnull @1, i32 %20, i32 34, ptr nonnull %12, ptr nonnull %9, ptr nonnull %10, ptr nonnull %11, i32 1, i32 1)
  %21 = load i32, ptr %10, align 4, !tbaa !100
  %22 = call i32 @llvm.smin.i32(i32 %21, i32 %19)
  store i32 %22, ptr %10, align 4, !tbaa !100
  %23 = load i32, ptr %9, align 4, !tbaa !100
  %.not37 = icmp sgt i32 %23, %22
  br i1 %.not37, label %._crit_edge, label %.lr.ph40

.lr.ph40:                                         ; preds = %18
  %24 = getelementptr inbounds nuw i8, ptr %3, i64 352
  %25 = load ptr, ptr %24, align 8, !tbaa !279
  %26 = getelementptr inbounds nuw i8, ptr %3, i64 4
  %27 = getelementptr inbounds nuw i8, ptr %5, i64 112
  %28 = sext i32 %23 to i64
  br label %29

29:                                               ; preds = %.lr.ph40, %.loopexit
  %30 = phi i32 [ %22, %.lr.ph40 ], [ %58, %.loopexit ]
  %indvars.iv = phi i64 [ %28, %.lr.ph40 ], [ %indvars.iv.next, %.loopexit ]
  %31 = getelementptr inbounds nuw i32, ptr %25, i64 %indvars.iv
  %32 = load i32, ptr %31, align 4, !tbaa !100
  %.not34 = icmp eq i32 %32, 0
  br i1 %.not34, label %.loopexit, label %33

33:                                               ; preds = %29
  %34 = load i32, ptr %26, align 4, !tbaa !280
  %35 = icmp sgt i32 %34, 0
  br i1 %35, label %.lr.ph, label %.loopexit

.lr.ph:                                           ; preds = %33
  %36 = trunc nsw i64 %indvars.iv to i32
  %37 = mul nsw i32 %34, %36
  %38 = load ptr, ptr %27, align 8
  %39 = load ptr, ptr %6, align 8
  br label %40

40:                                               ; preds = %.lr.ph, %56
  %.03236 = phi i32 [ 0, %.lr.ph ], [ %57, %56 ]
  %41 = load i32, ptr %31, align 4, !tbaa !100
  %42 = shl nuw i32 1, %.03236
  %43 = and i32 %41, %42
  %.not35 = icmp eq i32 %43, 0
  br i1 %.not35, label %56, label %44

44:                                               ; preds = %40
  %45 = load i32, ptr %4, align 4, !tbaa !100
  %46 = add i32 %.03236, %37
  %47 = add i32 %46, %45
  %48 = load i32, ptr %5, align 8, !tbaa !140
  %49 = add nsw i32 %48, -1
  %50 = sext i32 %47 to i64
  %51 = getelementptr inbounds nuw i32, ptr %38, i64 %50
  store i32 %49, ptr %51, align 4, !tbaa !100
  %52 = load i32, ptr %7, align 4, !tbaa !100
  %53 = mul nsw i32 %52, %47
  %54 = sext i32 %53 to i64
  %55 = getelementptr inbounds float, ptr %39, i64 %54
  store float 0.000000e+00, ptr %55, align 4, !tbaa !71
  br label %56

56:                                               ; preds = %40, %44
  %57 = add nuw nsw i32 %.03236, 1
  %exitcond.not = icmp eq i32 %57, %34
  br i1 %exitcond.not, label %.loopexit.loopexit, label %40, !llvm.loop !281

.loopexit.loopexit:                               ; preds = %56
  %.pre = load i32, ptr %10, align 4, !tbaa !100
  br label %.loopexit

.loopexit:                                        ; preds = %.loopexit.loopexit, %33, %29
  %58 = phi i32 [ %.pre, %.loopexit.loopexit ], [ %30, %33 ], [ %30, %29 ]
  %indvars.iv.next = add nsw i64 %indvars.iv, 1
  %59 = sext i32 %58 to i64
  %.not.not = icmp slt i64 %indvars.iv, %59
  br i1 %.not.not, label %29, label %._crit_edge

._crit_edge:                                      ; preds = %.loopexit, %18
  call void @__kmpc_for_static_fini(ptr nonnull @1, i32 %20)
  call void @llvm.lifetime.end.p0(i64 4, ptr nonnull %12) #23
  call void @llvm.lifetime.end.p0(i64 4, ptr nonnull %11) #23
  call void @llvm.lifetime.end.p0(i64 4, ptr nonnull %10) #23
  call void @llvm.lifetime.end.p0(i64 4, ptr nonnull %9) #23
  br label %60

60:                                               ; preds = %._crit_edge, %8
  ret void
}